#include <math.h>
#include <stdio.h>
#include <stdlib.h>
#include <string.h>

int sushu(int a)
{
int i;
   for(i=2;i<a;i++)
   {
      if(a%i==0)
      break;
    }
    if(i==a)
      return 1;
} 
main()
{
      int m,i;
      scanf("%d",&m);
      for(i=3;i<=m/2;i=i+2)
      {
         if((sushu(i)==1)&&(sushu(m-i)==1))
           printf("%d %d\n",i,m-i);
      }
}                                            